target datalayout = "e-m:e-p270:32:32-p271:32:32-p272:64:64-i64:64-i128:128-f80:128-n8:16:32:64-S128"
target triple = "x86_64-pc-linux-gnu"

@accents = internal constant [16 x i16] [i16 0, i16 96, i16 180, i16 94, i16 126, i16 175, i16 728, i16 729, i16 168, i16 0, i16 730, i16 184, i16 0, i16 733, i16 731, i16 711], align 16
@cx_tab = internal global [16 x ptr] [ptr null, ptr @c1_grave, ptr @c2_acute, ptr @c3_circumflex, ptr @c4_tilde, ptr @c5_macron, ptr @c6_breve, ptr @c7_dotabove, ptr @c8_diaeresis, ptr null, ptr @ca_ringabove, ptr @cb_cedilla, ptr null, ptr @cd_doubleacute, ptr @ce_ogonek, ptr @cf_caron], align 16

; Function Attrs: null_pointer_is_valid sspstrong uwtable
define ptr @get_t61_string(ptr noundef %0, ptr noundef %1, i32 noundef %2) #0 {
  %4 = alloca ptr, align 8
  %5 = alloca ptr, align 8
  %6 = alloca i32, align 4
  %7 = alloca i32, align 4
  %8 = alloca ptr, align 8
  %9 = alloca ptr, align 8
  %10 = alloca i32, align 4
  store ptr %0, ptr %4, align 8
  store ptr %1, ptr %5, align 8
  store i32 %2, ptr %6, align 4
  call void @llvm.lifetime.start.p0(i64 4, ptr %7) #8
  call void @llvm.lifetime.start.p0(i64 8, ptr %8) #8
  call void @llvm.lifetime.start.p0(i64 8, ptr %9) #8
  %11 = load ptr, ptr %4, align 8
  %12 = load i32, ptr %6, align 4
  %13 = add i32 %12, 1
  %14 = sext i32 %13 to i64
  %15 = call noalias ptr @wmem_strbuf_new_sized(ptr noundef %11, i64 noundef %14)
  store ptr %15, ptr %9, align 8
  store i32 0, ptr %7, align 4
  %16 = load ptr, ptr %5, align 8
  store ptr %16, ptr %8, align 8
  br label %17

17:                                               ; preds = %165, %3
  %18 = load i32, ptr %7, align 4
  %19 = load i32, ptr %6, align 4
  %20 = icmp slt i32 %18, %19
  br i1 %20, label %21, label %170

21:                                               ; preds = %17
  %22 = load ptr, ptr %8, align 8
  %23 = load i8, ptr %22, align 1
  %24 = zext i8 %23 to i64
  %25 = getelementptr [256 x i16], ptr @t61_tab, i64 0, i64 %24
  %26 = load i16, ptr %25, align 2
  %27 = icmp ne i16 %26, 0
  br i1 %27, label %30, label %28

28:                                               ; preds = %21
  %29 = load ptr, ptr %9, align 8
  call void @wmem_strbuf_append_unichar(ptr noundef %29, i32 noundef 65533)
  br label %164

30:                                               ; preds = %21
  %31 = load i32, ptr %7, align 4
  %32 = load i32, ptr %6, align 4
  %33 = sub i32 %32, 1
  %34 = icmp slt i32 %31, %33
  br i1 %34, label %35, label %155

35:                                               ; preds = %30
  %36 = load ptr, ptr %8, align 8
  %37 = load i8, ptr %36, align 1
  %38 = zext i8 %37 to i32
  %39 = and i32 %38, 240
  %40 = icmp eq i32 %39, 192
  br i1 %40, label %41, label %155

41:                                               ; preds = %35
  call void @llvm.lifetime.start.p0(i64 4, ptr %10) #8
  %42 = load ptr, ptr %8, align 8
  %43 = load i8, ptr %42, align 1
  %44 = zext i8 %43 to i32
  %45 = and i32 %44, 15
  store i32 %45, ptr %10, align 4
  %46 = load ptr, ptr %8, align 8
  %47 = getelementptr i8, ptr %46, i64 1
  %48 = load i8, ptr %47, align 1
  %49 = icmp ne i8 %48, 0
  br i1 %49, label %50, label %56

50:                                               ; preds = %41
  %51 = load ptr, ptr %8, align 8
  %52 = getelementptr i8, ptr %51, i64 1
  %53 = load i8, ptr %52, align 1
  %54 = zext i8 %53 to i32
  %55 = icmp eq i32 %54, 32
  br i1 %55, label %56, label %70

56:                                               ; preds = %50, %41
  %57 = load i32, ptr %10, align 4
  %58 = sext i32 %57 to i64
  %59 = getelementptr [16 x i16], ptr @accents, i64 0, i64 %58
  %60 = load i16, ptr %59, align 2
  %61 = zext i16 %60 to i32
  %62 = icmp ne i32 %61, 0
  br i1 %62, label %63, label %70

63:                                               ; preds = %56
  %64 = load ptr, ptr %9, align 8
  %65 = load i32, ptr %10, align 4
  %66 = sext i32 %65 to i64
  %67 = getelementptr [16 x i16], ptr @accents, i64 0, i64 %66
  %68 = load i16, ptr %67, align 2
  %69 = zext i16 %68 to i32
  call void @wmem_strbuf_append_unichar(ptr noundef %64, i32 noundef %69)
  br label %150

70:                                               ; preds = %56, %50
  %71 = load i32, ptr %10, align 4
  %72 = sext i32 %71 to i64
  %73 = getelementptr [16 x ptr], ptr @cx_tab, i64 0, i64 %72
  %74 = load ptr, ptr %73, align 8
  %75 = icmp ne ptr %74, null
  br i1 %75, label %76, label %136

76:                                               ; preds = %70
  %77 = load i32, ptr %10, align 4
  %78 = sext i32 %77 to i64
  %79 = getelementptr [16 x ptr], ptr @cx_tab, i64 0, i64 %78
  %80 = load ptr, ptr %79, align 8
  %81 = load ptr, ptr %8, align 8
  %82 = getelementptr i8, ptr %81, i64 1
  %83 = load i8, ptr %82, align 1
  %84 = zext i8 %83 to i32
  %85 = ashr i32 %84, 5
  %86 = sext i32 %85 to i64
  %87 = getelementptr ptr, ptr %80, i64 %86
  %88 = load ptr, ptr %87, align 8
  %89 = icmp ne ptr %88, null
  br i1 %89, label %90, label %136

90:                                               ; preds = %76
  %91 = load i32, ptr %10, align 4
  %92 = sext i32 %91 to i64
  %93 = getelementptr [16 x ptr], ptr @cx_tab, i64 0, i64 %92
  %94 = load ptr, ptr %93, align 8
  %95 = load ptr, ptr %8, align 8
  %96 = getelementptr i8, ptr %95, i64 1
  %97 = load i8, ptr %96, align 1
  %98 = zext i8 %97 to i32
  %99 = ashr i32 %98, 5
  %100 = sext i32 %99 to i64
  %101 = getelementptr ptr, ptr %94, i64 %100
  %102 = load ptr, ptr %101, align 8
  %103 = load ptr, ptr %8, align 8
  %104 = getelementptr i8, ptr %103, i64 1
  %105 = load i8, ptr %104, align 1
  %106 = zext i8 %105 to i32
  %107 = and i32 %106, 31
  %108 = sext i32 %107 to i64
  %109 = getelementptr [32 x i16], ptr %102, i64 0, i64 %108
  %110 = load i16, ptr %109, align 2
  %111 = zext i16 %110 to i32
  %112 = icmp ne i32 %111, 0
  br i1 %112, label %113, label %136

113:                                              ; preds = %90
  %114 = load ptr, ptr %9, align 8
  %115 = load i32, ptr %10, align 4
  %116 = sext i32 %115 to i64
  %117 = getelementptr [16 x ptr], ptr @cx_tab, i64 0, i64 %116
  %118 = load ptr, ptr %117, align 8
  %119 = load ptr, ptr %8, align 8
  %120 = getelementptr i8, ptr %119, i64 1
  %121 = load i8, ptr %120, align 1
  %122 = zext i8 %121 to i32
  %123 = ashr i32 %122, 5
  %124 = sext i32 %123 to i64
  %125 = getelementptr ptr, ptr %118, i64 %124
  %126 = load ptr, ptr %125, align 8
  %127 = load ptr, ptr %8, align 8
  %128 = getelementptr i8, ptr %127, i64 1
  %129 = load i8, ptr %128, align 1
  %130 = zext i8 %129 to i32
  %131 = and i32 %130, 31
  %132 = sext i32 %131 to i64
  %133 = getelementptr [32 x i16], ptr %126, i64 0, i64 %132
  %134 = load i16, ptr %133, align 2
  %135 = zext i16 %134 to i32
  call void @wmem_strbuf_append_unichar(ptr noundef %114, i32 noundef %135)
  br label %149

136:                                              ; preds = %90, %76, %70
  %137 = load ptr, ptr %9, align 8
  %138 = load ptr, ptr %8, align 8
  %139 = getelementptr i8, ptr %138, i64 1
  %140 = load i8, ptr %139, align 1
  %141 = zext i8 %140 to i32
  call void @wmem_strbuf_append_unichar(ptr noundef %137, i32 noundef %141)
  %142 = load ptr, ptr %9, align 8
  %143 = load ptr, ptr %8, align 8
  %144 = load i8, ptr %143, align 1
  %145 = zext i8 %144 to i64
  %146 = getelementptr [256 x i16], ptr @t61_tab, i64 0, i64 %145
  %147 = load i16, ptr %146, align 2
  %148 = zext i16 %147 to i32
  call void @wmem_strbuf_append_unichar(ptr noundef %142, i32 noundef %148)
  br label %149

149:                                              ; preds = %136, %113
  br label %150

150:                                              ; preds = %149, %63
  %151 = load ptr, ptr %8, align 8
  %152 = getelementptr i8, ptr %151, i32 1
  store ptr %152, ptr %8, align 8
  %153 = load i32, ptr %7, align 4
  %154 = add i32 %153, 1
  store i32 %154, ptr %7, align 4
  call void @llvm.lifetime.end.p0(i64 4, ptr %10) #8
  br label %165

155:                                              ; preds = %35, %30
  %156 = load ptr, ptr %9, align 8
  %157 = load ptr, ptr %8, align 8
  %158 = load i8, ptr %157, align 1
  %159 = zext i8 %158 to i64
  %160 = getelementptr [256 x i16], ptr @t61_tab, i64 0, i64 %159
  %161 = load i16, ptr %160, align 2
  %162 = zext i16 %161 to i32
  call void @wmem_strbuf_append_unichar(ptr noundef %156, i32 noundef %162)
  br label %163

163:                                              ; preds = %155
  br label %164

164:                                              ; preds = %163, %28
  br label %165

165:                                              ; preds = %164, %150
  %166 = load ptr, ptr %8, align 8
  %167 = getelementptr i8, ptr %166, i32 1
  store ptr %167, ptr %8, align 8
  %168 = load i32, ptr %7, align 4
  %169 = add i32 %168, 1
  store i32 %169, ptr %7, align 4
  br label %17, !llvm.loop !23

170:                                              ; preds = %17
  %171 = load ptr, ptr %9, align 8
  %172 = call ptr @wmem_strbuf_finalize(ptr noundef %171)
  call void @llvm.lifetime.end.p0(i64 8, ptr %9) #8
  call void @llvm.lifetime.end.p0(i64 8, ptr %8) #8
  call void @llvm.lifetime.end.p0(i64 4, ptr %7) #8
  ret ptr %172
}